target datalayout = "e-m:e-p270:32:32-p271:32:32-p272:64:64-i64:64-i128:128-f80:128-n8:16:32:64-S128"
target triple = "x86_64-pc-linux-gnu"

%"class.llvm::DWARFFormValue" = type { i16, i8, %"struct.llvm::DWARFFormValue::ValueType", ptr, ptr }
%"struct.llvm::DWARFFormValue::ValueType" = type { %union.anon, ptr, i64 }
%union.anon = type { i64 }
%"class.llvm::DWARFDataExtractor" = type { %"class.llvm::DataExtractor.base", ptr, ptr }
%"class.llvm::DataExtractor.base" = type <{ %"class.llvm::StringRef", i8, i8 }>
%"class.llvm::StringRef" = type { ptr, i64 }
%"struct.llvm::dwarf::FormParams" = type <{ i16, i8, i8, i8, i8 }>
%"class.llvm::DWARFUnit" = type { ptr, ptr, ptr, %"class.llvm::DWARFUnitHeader", ptr, ptr, i64, i64, %"class.std::unique_ptr", ptr, %"class.llvm::StringRef", ptr, ptr, ptr, %"class.std::optional", i8, i8, ptr, %"class.std::optional.2", ptr, %"class.std::optional.10", %"class.std::vector", %"class.std::map", %"class.std::map", %"class.llvm::DenseSet", %"class.std::shared_ptr" }
%"class.llvm::DWARFUnitHeader" = type <{ i64, %"struct.llvm::dwarf::FormParams", [2 x i8], i64, i64, ptr, i64, i64, %"class.std::optional", i8, i8, [6 x i8] }>
%"class.std::unique_ptr" = type { %"struct.std::__uniq_ptr_data" }
%"struct.std::__uniq_ptr_data" = type { %"class.std::__uniq_ptr_impl" }
%"class.std::__uniq_ptr_impl" = type { %"class.std::tuple" }
%"class.std::tuple" = type { %"struct.std::_Tuple_impl" }
%"struct.std::_Tuple_impl" = type { %"struct.std::_Head_base.1" }
%"struct.std::_Head_base.1" = type { ptr }
%"class.std::optional" = type { %"struct.std::_Optional_base" }
%"struct.std::_Optional_base" = type { %"struct.std::_Optional_payload" }
%"struct.std::_Optional_payload" = type { %"struct.std::_Optional_payload_base.base", [7 x i8] }
%"struct.std::_Optional_payload_base.base" = type <{ %"union.std::_Optional_payload_base<unsigned long>::_Storage", i8 }>
%"union.std::_Optional_payload_base<unsigned long>::_Storage" = type { i64 }
%"class.std::optional.2" = type { %"struct.std::_Optional_base.3" }
%"struct.std::_Optional_base.3" = type { %"struct.std::_Optional_payload.5" }
%"struct.std::_Optional_payload.5" = type { %"struct.std::_Optional_payload_base.base.7", [7 x i8] }
%"struct.std::_Optional_payload_base.base.7" = type { %"union.std::_Optional_payload_base<llvm::StrOffsetsContributionDescriptor>::_Storage", i8 }
%"union.std::_Optional_payload_base<llvm::StrOffsetsContributionDescriptor>::_Storage" = type { %"struct.llvm::StrOffsetsContributionDescriptor" }
%"struct.llvm::StrOffsetsContributionDescriptor" = type <{ i64, i64, %"struct.llvm::dwarf::FormParams", [2 x i8] }>
%"class.std::optional.10" = type { %"struct.std::_Optional_base.11" }
%"struct.std::_Optional_base.11" = type { %"struct.std::_Optional_payload.13" }
%"struct.std::_Optional_payload.13" = type { %"struct.std::_Optional_payload_base.base.15", [7 x i8] }
%"struct.std::_Optional_payload_base.base.15" = type <{ %"union.std::_Optional_payload_base<llvm::object::SectionedAddress>::_Storage", i8 }>
%"union.std::_Optional_payload_base<llvm::object::SectionedAddress>::_Storage" = type { %"struct.llvm::object::SectionedAddress" }
%"struct.llvm::object::SectionedAddress" = type { i64, i64 }
%"class.std::vector" = type { %"struct.std::_Vector_base" }
%"struct.std::_Vector_base" = type { %"struct.std::_Vector_base<llvm::DWARFDebugInfoEntry, std::allocator<llvm::DWARFDebugInfoEntry>>::_Vector_impl" }
%"struct.std::_Vector_base<llvm::DWARFDebugInfoEntry, std::allocator<llvm::DWARFDebugInfoEntry>>::_Vector_impl" = type { %"struct.std::_Vector_base<llvm::DWARFDebugInfoEntry, std::allocator<llvm::DWARFDebugInfoEntry>>::_Vector_impl_data" }
%"struct.std::_Vector_base<llvm::DWARFDebugInfoEntry, std::allocator<llvm::DWARFDebugInfoEntry>>::_Vector_impl_data" = type { ptr, ptr, ptr }
%"class.std::map" = type { %"class.std::_Rb_tree" }
%"class.std::_Rb_tree" = type { %"struct.std::_Rb_tree<unsigned long, std::pair<const unsigned long, std::pair<unsigned long, llvm::DWARFDie>>, std::_Select1st<std::pair<const unsigned long, std::pair<unsigned long, llvm::DWARFDie>>>, std::less<unsigned long>>::_Rb_tree_impl" }
%"struct.std::_Rb_tree<unsigned long, std::pair<const unsigned long, std::pair<unsigned long, llvm::DWARFDie>>, std::_Select1st<std::pair<const unsigned long, std::pair<unsigned long, llvm::DWARFDie>>>, std::less<unsigned long>>::_Rb_tree_impl" = type { [8 x i8], %"struct.std::_Rb_tree_header" }
%"struct.std::_Rb_tree_header" = type { %"struct.std::_Rb_tree_node_base", i64 }
%"struct.std::_Rb_tree_node_base" = type { i32, ptr, ptr, ptr }
%"class.llvm::DenseSet" = type { %"class.llvm::detail::DenseSetImpl" }
%"class.llvm::detail::DenseSetImpl" = type { %"class.llvm::DenseMap" }
%"class.llvm::DenseMap" = type <{ ptr, i32, i32, i32, [4 x i8] }>
%"class.std::shared_ptr" = type { %"class.std::__shared_ptr" }
%"class.std::__shared_ptr" = type { ptr, %"class.std::__shared_count" }
%"class.std::__shared_count" = type { ptr }

; Function Attrs: mustprogress nounwind uwtable
define linkonce_odr hidden noundef nonnull align 2 dereferenceable(5) ptr @_ZNK4llvm15DWARFUnitHeader13getFormParamsEv(ptr noundef nonnull align 8 dereferenceable(74) %0) #0 comdat align 2 {
  %2 = alloca ptr, align 8
  store ptr %0, ptr %2, align 8
  %3 = load ptr, ptr %2, align 8
  %4 = getelementptr inbounds nuw %"class.llvm::DWARFUnitHeader", ptr %3, i32 0, i32 1
  ret ptr %4
}

; Function Attrs: mustprogress nounwind uwtable
define linkonce_odr hidden void @_ZN4llvm14DWARFFormValue9ValueTypeC2Ev(ptr noundef nonnull align 8 dereferenceable(24) %0) unnamed_addr #0 comdat align 2 {
  %2 = alloca ptr, align 8
  store ptr %0, ptr %2, align 8
  %3 = load ptr, ptr %2, align 8
  %4 = getelementptr inbounds nuw %"struct.llvm::DWARFFormValue::ValueType", ptr %3, i32 0, i32 1
  store ptr null, ptr %4, align 8
  %5 = getelementptr inbounds nuw %"struct.llvm::DWARFFormValue::ValueType", ptr %3, i32 0, i32 0
  store i64 0, ptr %5, align 8
  ret void
}

; Function Attrs: mustprogress nounwind uwtable
define linkonce_odr hidden noundef zeroext i1 @_ZN4llvm14DWARFFormValue12extractValueERKNS_18DWARFDataExtractorEPmNS_5dwarf10FormParamsEPKNS_9DWARFUnitE(ptr noundef nonnull align 8 dereferenceable(48) %0, ptr noundef nonnull align 8 dereferenceable(40) %1, ptr noundef %2, i48 %3, ptr noundef %4) #0 comdat align 2 {
  %6 = alloca %"struct.llvm::dwarf::FormParams", align 2
  %7 = alloca ptr, align 8
  %8 = alloca ptr, align 8
  %9 = alloca ptr, align 8
  %10 = alloca ptr, align 8
  %11 = alloca %"struct.llvm::dwarf::FormParams", align 2
  %12 = alloca i48, align 8
  store i48 %3, ptr %6, align 2
  store ptr %0, ptr %7, align 8
  store ptr %1, ptr %8, align 8
  store ptr %2, ptr %9, align 8
  store ptr %4, ptr %10, align 8
  %13 = load ptr, ptr %7, align 8
  %14 = load ptr, ptr %8, align 8
  %15 = load ptr, ptr %9, align 8
  call void @llvm.memcpy.p0.p0.i64(ptr align 2 %11, ptr align 2 %6, i64 6, i1 false)
  %16 = load ptr, ptr %10, align 8
  call void @llvm.memcpy.p0.p0.i64(ptr align 8 %12, ptr align 2 %11, i64 6, i1 false)
  %17 = load i48, ptr %12, align 8
  %18 = call noundef zeroext i1 @_ZN4llvm14DWARFFormValue12extractValueERKNS_18DWARFDataExtractorEPmNS_5dwarf10FormParamsEPKNS_12DWARFContextEPKNS_9DWARFUnitE(ptr noundef nonnull align 8 dereferenceable(48) %13, ptr noundef nonnull align 8 dereferenceable(40) %14, ptr noundef %15, i48 %17, ptr noundef null, ptr noundef %16)
  ret i1 %18
}

; Function Attrs: mustprogress nounwind uwtable
define linkonce_odr hidden noundef nonnull align 2 dereferenceable(5) ptr @_ZNK4llvm9DWARFUnit13getFormParamsEv(ptr noundef nonnull align 8 dereferenceable(448) %0) #0 comdat align 2 {
  %2 = alloca ptr, align 8
  store ptr %0, ptr %2, align 8
  %3 = load ptr, ptr %2, align 8
  %4 = getelementptr inbounds nuw %"class.llvm::DWARFUnit", ptr %3, i32 0, i32 3
  %5 = call noundef nonnull align 2 dereferenceable(5) ptr @_ZNK4llvm15DWARFUnitHeader13getFormParamsEv(ptr noundef nonnull align 8 dereferenceable(74) %4)
  ret ptr %5
}

; Function Attrs: mustprogress nounwind uwtable
define linkonce_odr hidden void @_ZN4llvm14DWARFFormValueC2ENS_5dwarf4FormE(ptr noundef nonnull align 8 dereferenceable(48) %0, i16 noundef zeroext %1) unnamed_addr #0 comdat align 2 {
  %3 = alloca ptr, align 8
  %4 = alloca i16, align 2
  store ptr %0, ptr %3, align 8
  store i16 %1, ptr %4, align 2
  %5 = load ptr, ptr %3, align 8
  %6 = getelementptr inbounds nuw %"class.llvm::DWARFFormValue", ptr %5, i32 0, i32 0
  %7 = load i16, ptr %4, align 2
  store i16 %7, ptr %6, align 8
  %8 = getelementptr inbounds nuw %"class.llvm::DWARFFormValue", ptr %5, i32 0, i32 1
  store i8 0, ptr %8, align 2
  %9 = getelementptr inbounds nuw %"class.llvm::DWARFFormValue", ptr %5, i32 0, i32 2
  call void @_ZN4llvm14DWARFFormValue9ValueTypeC2Ev(ptr noundef nonnull align 8 dereferenceable(24) %9)
  %10 = getelementptr inbounds nuw %"class.llvm::DWARFFormValue", ptr %5, i32 0, i32 3
  store ptr null, ptr %10, align 8
  %11 = getelementptr inbounds nuw %"class.llvm::DWARFFormValue", ptr %5, i32 0, i32 4
  store ptr null, ptr %11, align 8
  ret void
}

; Function Attrs: mustprogress nounwind uwtable
define dso_local void @_ZN4llvm14DWARFFormValue14createFromUnitENS_5dwarf4FormEPKNS_9DWARFUnitEPm(ptr dead_on_unwind noalias writable sret(%"class.llvm::DWARFFormValue") align 8 %0, i16 noundef zeroext %1, ptr noundef %2, ptr noundef %3) #0 align 2 {
  %5 = alloca i16, align 2
  %6 = alloca ptr, align 8
  %7 = alloca ptr, align 8
  %8 = alloca %"class.llvm::DWARFDataExtractor", align 8
  %9 = alloca %"struct.llvm::dwarf::FormParams", align 2
  %10 = alloca i48, align 8
  store i16 %1, ptr %5, align 2
  store ptr %2, ptr %6, align 8
  store ptr %3, ptr %7, align 8
  %11 = load i16, ptr %5, align 2
  call void @_ZN4llvm14DWARFFormValueC2ENS_5dwarf4FormE(ptr noundef nonnull align 8 dereferenceable(48) %0, i16 noundef zeroext %11)
  %12 = load ptr, ptr %6, align 8
  call void @_ZNK4llvm9DWARFUnit21getDebugInfoExtractorEv(ptr dead_on_unwind writable sret(%"class.llvm::DWARFDataExtractor") align 8 %8, ptr noundef nonnull align 8 dereferenceable(448) %12)
  %13 = load ptr, ptr %7, align 8
  %14 = load ptr, ptr %6, align 8
  %15 = call noundef nonnull align 2 dereferenceable(5) ptr @_ZNK4llvm9DWARFUnit13getFormParamsEv(ptr noundef nonnull align 8 dereferenceable(448) %14)
  call void @llvm.memcpy.p0.p0.i64(ptr align 2 %9, ptr align 2 %15, i64 6, i1 false)
  %16 = load ptr, ptr %6, align 8
  call void @llvm.memcpy.p0.p0.i64(ptr align 8 %10, ptr align 2 %9, i64 6, i1 false)
  %17 = load i48, ptr %10, align 8
  %18 = call noundef zeroext i1 @_ZN4llvm14DWARFFormValue12extractValueERKNS_18DWARFDataExtractorEPmNS_5dwarf10FormParamsEPKNS_9DWARFUnitE(ptr noundef nonnull align 8 dereferenceable(48) %0, ptr noundef nonnull align 8 dereferenceable(40) %8, ptr noundef %13, i48 %17, ptr noundef %16)
  ret void
}