; Function Attrs: mustprogress nounwind uwtable
define dso_local void @_ZN4llvm14DWARFFormValue14createFromUnitENS_5dwarf4FormEPKNS_9DWARFUnitEPm(ptr dead_on_unwind noalias writable sret(%"class.llvm::DWARFFormValue") align 8 %0, i16 noundef zeroext %1, ptr noundef nonnull %2, ptr noundef %3) local_unnamed_addr #1 align 2 {
  %5 = alloca %"class.llvm::DWARFDataExtractor", align 8
  store i16 %1, ptr %0, align 8
  %6 = getelementptr inbounds nuw i8, ptr %0, i64 2
  store i8 0, ptr %6, align 2
  %7 = getelementptr inbounds nuw i8, ptr %0, i64 8
  tail call void @llvm.memset.p0.i64(ptr noundef nonnull align 8 dereferenceable(16) %7, i8 0, i64 16, i1 false)
  %8 = getelementptr inbounds nuw i8, ptr %0, i64 32
  tail call void @llvm.memset.p0.i64(ptr noundef nonnull align 8 dereferenceable(16) %8, i8 0, i64 16, i1 false)
  call void @_ZNK4llvm9DWARFUnit21getDebugInfoExtractorEv(ptr dead_on_unwind nonnull writable sret(%"class.llvm::DWARFDataExtractor") align 8 %5, ptr noundef nonnull align 8 dereferenceable(448) %2) #19
  %9 = getelementptr inbounds i8, ptr %2, i64 32
  %.sroa.0.0.copyload = load i48, ptr %9, align 2
  %10 = call noundef zeroext i1 @_ZN4llvm14DWARFFormValue12extractValueERKNS_18DWARFDataExtractorEPmNS_5dwarf10FormParamsEPKNS_12DWARFContextEPKNS_9DWARFUnitE(ptr noundef nonnull align 8 dereferenceable(48) %0, ptr noundef nonnull align 8 dereferenceable(40) %5, ptr noundef %3, i48 %.sroa.0.0.copyload, ptr noundef null, ptr noundef nonnull %2)
  ret void
}